target datalayout = "e-m:e-p270:32:32-p271:32:32-p272:64:64-i64:64-i128:128-f80:128-n8:16:32:64-S128"
target triple = "x86_64-pc-linux-gnu"

%"class.facebook::yoga::Config" = type { ptr, ptr, i8, i32, %"class.std::bitset", i32, float, ptr }
%"class.std::bitset" = type { %"struct.std::_Base_bitset" }
%"struct.std::_Base_bitset" = type { i64 }

; Function Attrs: mustprogress nounwind uwtable
define linkonce_odr void @_ZNSt12_Base_bitsetILm1EEC2Ev(ptr noundef nonnull align 8 dereferenceable(8) %0) unnamed_addr #3 comdat align 2 {
  %2 = alloca ptr, align 8
  store ptr %0, ptr %2, align 8, !tbaa !37
  %3 = load ptr, ptr %2, align 8
  %4 = getelementptr inbounds nuw %"struct.std::_Base_bitset", ptr %3, i32 0, i32 0
  store i64 0, ptr %4, align 8, !tbaa !39
  ret void
}

; Function Attrs: mustprogress nounwind uwtable
define linkonce_odr void @_ZNSt6bitsetILm1EEC2Ev(ptr noundef nonnull align 8 dereferenceable(8) %0) unnamed_addr #3 comdat align 2 {
  %2 = alloca ptr, align 8
  store ptr %0, ptr %2, align 8, !tbaa !35
  %3 = load ptr, ptr %2, align 8
  call void @_ZNSt12_Base_bitsetILm1EEC2Ev(ptr noundef nonnull align 8 dereferenceable(8) %3) #8
  ret void
}

; Function Attrs: mustprogress nounwind uwtable
define linkonce_odr void @_ZN8facebook4yoga6ConfigC2EPFiPK8YGConfigPK6YGNode10YGLogLevelPKcP13__va_list_tagE(ptr noundef nonnull align 8 dereferenceable(48) %0, ptr noundef %1) unnamed_addr #3 comdat align 2 {
  %3 = alloca ptr, align 8
  %4 = alloca ptr, align 8
  store ptr %0, ptr %3, align 8, !tbaa !4
  store ptr %1, ptr %4, align 8, !tbaa !9
  %5 = load ptr, ptr %3, align 8
  %6 = getelementptr inbounds nuw %"class.facebook::yoga::Config", ptr %5, i32 0, i32 0
  store ptr null, ptr %6, align 8, !tbaa !10
  %7 = getelementptr inbounds nuw %"class.facebook::yoga::Config", ptr %5, i32 0, i32 1
  %8 = load ptr, ptr %4, align 8, !tbaa !9
  store ptr %8, ptr %7, align 8, !tbaa !19
  %9 = getelementptr inbounds nuw %"class.facebook::yoga::Config", ptr %5, i32 0, i32 2
  %10 = load i8, ptr %9, align 8
  %11 = and i8 %10, -2
  %12 = or i8 %11, 0
  store i8 %12, ptr %9, align 8
  %13 = getelementptr inbounds nuw %"class.facebook::yoga::Config", ptr %5, i32 0, i32 3
  store i32 0, ptr %13, align 4, !tbaa !20
  %14 = getelementptr inbounds nuw %"class.facebook::yoga::Config", ptr %5, i32 0, i32 4
  call void @_ZNSt6bitsetILm1EEC2Ev(ptr noundef nonnull align 8 dereferenceable(8) %14) #8
  %15 = getelementptr inbounds nuw %"class.facebook::yoga::Config", ptr %5, i32 0, i32 5
  store i32 0, ptr %15, align 8, !tbaa !21
  %16 = getelementptr inbounds nuw %"class.facebook::yoga::Config", ptr %5, i32 0, i32 6
  store float 1.000000e+00, ptr %16, align 4, !tbaa !22
  %17 = getelementptr inbounds nuw %"class.facebook::yoga::Config", ptr %5, i32 0, i32 7
  store ptr null, ptr %17, align 8, !tbaa !23
  ret void
}

; Function Attrs: mustprogress uwtable
define ptr @YGConfigNew() #0 personality ptr @__gxx_personality_v0 {
  %1 = alloca ptr, align 8
  %2 = alloca i32, align 4
  %3 = call noalias noundef nonnull ptr @_Znwm(i64 noundef 48) #6
  %4 = invoke noundef ptr @_ZN8facebook4yoga16getDefaultLoggerEv()
          to label %5 unwind label %7

5:                                                ; preds = %0
  invoke void @_ZN8facebook4yoga6ConfigC2EPFiPK8YGConfigPK6YGNode10YGLogLevelPKcP13__va_list_tagE(ptr noundef nonnull align 8 dereferenceable(48) %3, ptr noundef %4)
          to label %6 unwind label %7

6:                                                ; preds = %5
  ret ptr %3

7:                                                ; preds = %5, %0
  %8 = landingpad { ptr, i32 }
          cleanup
  %9 = extractvalue { ptr, i32 } %8, 0
  store ptr %9, ptr %1, align 8
  %10 = extractvalue { ptr, i32 } %8, 1
  store i32 %10, ptr %2, align 4
  call void @_ZdlPvm(ptr noundef %3, i64 noundef 48) #7
  br label %11

11:                                               ; preds = %7
  %12 = load ptr, ptr %1, align 8
  %13 = load i32, ptr %2, align 4
  %14 = insertvalue { ptr, i32 } poison, ptr %12, 0
  %15 = insertvalue { ptr, i32 } %14, i32 %13, 1
  resume { ptr, i32 } %15
}