; Function Attrs: mustprogress uwtable
define noundef nonnull ptr @YGConfigNew() local_unnamed_addr #0 personality ptr @__gxx_personality_v0 {
  %1 = tail call noalias noundef nonnull dereferenceable(48) ptr @_Znwm(i64 noundef 48) #6
  %2 = invoke noundef ptr @_ZN8facebook4yoga16getDefaultLoggerEv()
          to label %3 unwind label %9

3:                                                ; preds = %0
  store ptr null, ptr %1, align 8, !tbaa !4
  %4 = getelementptr inbounds nuw i8, ptr %1, i64 8
  store ptr %2, ptr %4, align 8, !tbaa !16
  %5 = getelementptr inbounds nuw i8, ptr %1, i64 16
  store i8 0, ptr %5, align 8
  %6 = getelementptr inbounds nuw i8, ptr %1, i64 20
  %7 = getelementptr inbounds nuw i8, ptr %1, i64 36
  tail call void @llvm.memset.p0.i64(ptr noundef nonnull align 4 dereferenceable(16) %6, i8 0, i64 16, i1 false)
  store float 1.000000e+00, ptr %7, align 4, !tbaa !17
  %8 = getelementptr inbounds nuw i8, ptr %1, i64 40
  store ptr null, ptr %8, align 8, !tbaa !18
  ret ptr %1

9:                                                ; preds = %0
  %10 = landingpad { ptr, i32 }
          cleanup
  tail call void @_ZdlPvm(ptr noundef nonnull %1, i64 noundef 48) #7
  resume { ptr, i32 } %10
}